target datalayout = "e-m:e-p270:32:32-p271:32:32-p272:64:64-i64:64-i128:128-f80:128-n8:16:32:64-S128"
target triple = "x86_64-pc-linux-gnu"

%struct.Qureg = type { i32, i32, i32, i64, i64, i32, i32, %struct.ComplexArray, %struct.ComplexArray, %struct.ComplexArray, ptr, ptr, ptr, ptr, ptr, ptr }
%struct.ComplexArray = type { ptr, ptr }

@__func__.calcFidelity = private unnamed_addr constant [13 x i8] c"calcFidelity\00", align 1

; Function Attrs: nounwind uwtable
define double @calcFidelity(ptr noundef byval(%struct.Qureg) align 8 %0, ptr noundef byval(%struct.Qureg) align 8 %1) #0 {
  %3 = alloca double, align 8
  call void @validateSecondQuregStateVec(ptr noundef byval(%struct.Qureg) align 8 %1, ptr noundef @__func__.calcFidelity)
  call void @validateMatchingQuregDims(ptr noundef byval(%struct.Qureg) align 8 %0, ptr noundef byval(%struct.Qureg) align 8 %1, ptr noundef @__func__.calcFidelity)
  %4 = getelementptr inbounds nuw %struct.Qureg, ptr %0, i32 0, i32 0
  %5 = load i32, ptr %4, align 8, !tbaa !13
  %6 = icmp ne i32 %5, 0
  br i1 %6, label %7, label %9

7:                                                ; preds = %2
  %8 = call double @densmatr_calcFidelity(ptr noundef byval(%struct.Qureg) align 8 %0, ptr noundef byval(%struct.Qureg) align 8 %1)
  store double %8, ptr %3, align 8
  br label %11

9:                                                ; preds = %2
  %10 = call double @statevec_calcFidelity(ptr noundef byval(%struct.Qureg) align 8 %0, ptr noundef byval(%struct.Qureg) align 8 %1)
  store double %10, ptr %3, align 8
  br label %11

11:                                               ; preds = %9, %7
  %12 = load double, ptr %3, align 8
  ret double %12
}